; Function Attrs: nounwind uwtable
define hidden void @je_background_thread_ctl_init(ptr noundef readnone captures(none) %0) local_unnamed_addr #0 {
  %2 = load ptr, ptr @pthread_create_fptr, align 8, !tbaa !4
  %.not.i = icmp eq ptr %2, null
  br i1 %.not.i, label %3, label %pthread_create_fptr_init.exit

3:                                                ; preds = %1
  %4 = tail call ptr @dlsym(ptr noundef nonnull inttoptr (i64 -1 to ptr), ptr noundef nonnull @.str.6) #12
  %5 = icmp eq ptr %4, null
  %spec.store.select.i = select i1 %5, ptr @pthread_create, ptr %4
  store ptr %spec.store.select.i, ptr @pthread_create_fptr, align 8
  br label %pthread_create_fptr_init.exit

pthread_create_fptr_init.exit:                    ; preds = %1, %3
  ret void
}